#include <math.h>
#include <stdio.h>
#include <stdlib.h>
#include <string.h>

int main()
{
	char sign[81];
	char *p;
	int n;
	int i;
	int count=0;

	scanf("%d\n",&n);
	for(i=0;i<n;i++){
		gets(sign);

		p=sign;
		if(*p=='_'||*p>='A'&&*p<='Z'||*p>='a'&&*p<='z'){
		p++;
		count++;

		for(;;p++){
			if(*p=='\0'){
				break;
			}
			if(*p=='_'||(*p>='A'&&*p<='Z')||(*p>='a'&&*p<='z')||*p>='0'&&*p<='9'){
				count++;
			}
		}
		if(count==strlen(sign)){
			printf("1\n");
		}else{
			printf("0\n");
		}
		}else{
		printf("0\n");
		}
		count=0;
	}

	return 0;
}