; ModuleID = '58/1057.c'
source_filename = "58/1057.c"
target datalayout = "e-m:e-p270:32:32-p271:32:32-p272:64:64-i64:64-f80:128-n8:16:32:64-S128"
target triple = "x86_64-pc-linux-gnu"

@.str = private unnamed_addr constant [4 x i8] c"%d\0A\00", align 1
@.str.1 = private unnamed_addr constant [3 x i8] c"1\0A\00", align 1
@.str.2 = private unnamed_addr constant [3 x i8] c"0\0A\00", align 1

; Function Attrs: noinline nounwind uwtable
define dso_local i32 @main() #0 {
  %1 = alloca i32, align 4
  %2 = alloca [81 x i8], align 16
  %3 = alloca i8*, align 8
  %4 = alloca i32, align 4
  %5 = alloca i32, align 4
  %6 = alloca i32, align 4
  store i32 0, i32* %1, align 4
  store i32 0, i32* %6, align 4
  %7 = call i32 (i8*, ...) @__isoc99_scanf(i8* getelementptr inbounds ([4 x i8], [4 x i8]* @.str, i64 0, i64 0), i32* %4)
  store i32 0, i32* %5, align 4
  br label %8

8:                                                ; preds = %107, %0
  %9 = load i32, i32* %5, align 4
  %10 = load i32, i32* %4, align 4
  %11 = icmp slt i32 %9, %10
  br i1 %11, label %12, label %110

12:                                               ; preds = %8
  %13 = getelementptr inbounds [81 x i8], [81 x i8]* %2, i64 0, i64 0
  %14 = call i32 (i8*, ...) bitcast (i32 (...)* @gets to i32 (i8*, ...)*)(i8* %13)
  %15 = getelementptr inbounds [81 x i8], [81 x i8]* %2, i64 0, i64 0
  store i8* %15, i8** %3, align 8
  %16 = load i8*, i8** %3, align 8
  %17 = load i8, i8* %16, align 1
  %18 = sext i8 %17 to i32
  %19 = icmp eq i32 %18, 95
  br i1 %19, label %40, label %20

20:                                               ; preds = %12
  %21 = load i8*, i8** %3, align 8
  %22 = load i8, i8* %21, align 1
  %23 = sext i8 %22 to i32
  %24 = icmp sge i32 %23, 65
  br i1 %24, label %25, label %30

25:                                               ; preds = %20
  %26 = load i8*, i8** %3, align 8
  %27 = load i8, i8* %26, align 1
  %28 = sext i8 %27 to i32
  %29 = icmp sle i32 %28, 90
  br i1 %29, label %40, label %30

30:                                               ; preds = %25, %20
  %31 = load i8*, i8** %3, align 8
  %32 = load i8, i8* %31, align 1
  %33 = sext i8 %32 to i32
  %34 = icmp sge i32 %33, 97
  br i1 %34, label %35, label %104

35:                                               ; preds = %30
  %36 = load i8*, i8** %3, align 8
  %37 = load i8, i8* %36, align 1
  %38 = sext i8 %37 to i32
  %39 = icmp sle i32 %38, 122
  br i1 %39, label %40, label %104

40:                                               ; preds = %35, %25, %12
  %41 = load i8*, i8** %3, align 8
  %42 = getelementptr inbounds i8, i8* %41, i32 1
  store i8* %42, i8** %3, align 8
  %43 = load i32, i32* %6, align 4
  %44 = add nsw i32 %43, 1
  store i32 %44, i32* %6, align 4
  br label %45

45:                                               ; preds = %90, %40
  %46 = load i8*, i8** %3, align 8
  %47 = load i8, i8* %46, align 1
  %48 = sext i8 %47 to i32
  %49 = icmp eq i32 %48, 0
  br i1 %49, label %50, label %51

50:                                               ; preds = %45
  br label %93

51:                                               ; preds = %45
  %52 = load i8*, i8** %3, align 8
  %53 = load i8, i8* %52, align 1
  %54 = sext i8 %53 to i32
  %55 = icmp eq i32 %54, 95
  br i1 %55, label %86, label %56

56:                                               ; preds = %51
  %57 = load i8*, i8** %3, align 8
  %58 = load i8, i8* %57, align 1
  %59 = sext i8 %58 to i32
  %60 = icmp sge i32 %59, 65
  br i1 %60, label %61, label %66

61:                                               ; preds = %56
  %62 = load i8*, i8** %3, align 8
  %63 = load i8, i8* %62, align 1
  %64 = sext i8 %63 to i32
  %65 = icmp sle i32 %64, 90
  br i1 %65, label %86, label %66

66:                                               ; preds = %61, %56
  %67 = load i8*, i8** %3, align 8
  %68 = load i8, i8* %67, align 1
  %69 = sext i8 %68 to i32
  %70 = icmp sge i32 %69, 97
  br i1 %70, label %71, label %76

71:                                               ; preds = %66
  %72 = load i8*, i8** %3, align 8
  %73 = load i8, i8* %72, align 1
  %74 = sext i8 %73 to i32
  %75 = icmp sle i32 %74, 122
  br i1 %75, label %86, label %76

76:                                               ; preds = %71, %66
  %77 = load i8*, i8** %3, align 8
  %78 = load i8, i8* %77, align 1
  %79 = sext i8 %78 to i32
  %80 = icmp sge i32 %79, 48
  br i1 %80, label %81, label %89

81:                                               ; preds = %76
  %82 = load i8*, i8** %3, align 8
  %83 = load i8, i8* %82, align 1
  %84 = sext i8 %83 to i32
  %85 = icmp sle i32 %84, 57
  br i1 %85, label %86, label %89

86:                                               ; preds = %81, %71, %61, %51
  %87 = load i32, i32* %6, align 4
  %88 = add nsw i32 %87, 1
  store i32 %88, i32* %6, align 4
  br label %89

89:                                               ; preds = %86, %81, %76
  br label %90

90:                                               ; preds = %89
  %91 = load i8*, i8** %3, align 8
  %92 = getelementptr inbounds i8, i8* %91, i32 1
  store i8* %92, i8** %3, align 8
  br label %45

93:                                               ; preds = %50
  %94 = load i32, i32* %6, align 4
  %95 = sext i32 %94 to i64
  %96 = getelementptr inbounds [81 x i8], [81 x i8]* %2, i64 0, i64 0
  %97 = call i64 @strlen(i8* %96) #3
  %98 = icmp eq i64 %95, %97
  br i1 %98, label %99, label %101

99:                                               ; preds = %93
  %100 = call i32 (i8*, ...) @printf(i8* getelementptr inbounds ([3 x i8], [3 x i8]* @.str.1, i64 0, i64 0))
  br label %103

101:                                              ; preds = %93
  %102 = call i32 (i8*, ...) @printf(i8* getelementptr inbounds ([3 x i8], [3 x i8]* @.str.2, i64 0, i64 0))
  br label %103

103:                                              ; preds = %101, %99
  br label %106

104:                                              ; preds = %35, %30
  %105 = call i32 (i8*, ...) @printf(i8* getelementptr inbounds ([3 x i8], [3 x i8]* @.str.2, i64 0, i64 0))
  br label %106

106:                                              ; preds = %104, %103
  store i32 0, i32* %6, align 4
  br label %107

107:                                              ; preds = %106
  %108 = load i32, i32* %5, align 4
  %109 = add nsw i32 %108, 1
  store i32 %109, i32* %5, align 4
  br label %8

110:                                              ; preds = %8
  ret i32 0
}

declare dso_local i32 @__isoc99_scanf(i8*, ...) #1

declare dso_local i32 @gets(...) #1

; Function Attrs: nounwind readonly
declare dso_local i64 @strlen(i8*) #2

declare dso_local i32 @printf(i8*, ...) #1


!llvm.module.flags = !{!0}
!llvm.ident = !{!1}

!0 = !{i32 1, !"wchar_size", i32 4}
!1 = !{!"clang version 10.0.0-4ubuntu1 "}
