; ModuleID = 'source-C-CXX/57/1057.c'
source_filename = "source-C-CXX/57/1057.c"
target datalayout = "e-m:e-p270:32:32-p271:32:32-p272:64:64-i64:64-f80:128-n8:16:32:64-S128"
target triple = "x86_64-pc-linux-gnu"

@.str = private unnamed_addr constant [4 x i8] c"%d\0A\00", align 1
@str.3 = private unnamed_addr constant [2 x i8] c"0\00", align 1
@str.4 = private unnamed_addr constant [2 x i8] c"1\00", align 1

; Function Attrs: nounwind sspstrong uwtable
define dso_local i32 @main() local_unnamed_addr #0 {
  %1 = alloca [81 x i8], align 16
  %2 = alloca i32, align 4
  %3 = getelementptr inbounds [81 x i8], [81 x i8]* %1, i64 0, i64 0
  call void @llvm.lifetime.start.p0i8(i64 81, i8* nonnull %3) #6
  %4 = bitcast i32* %2 to i8*
  call void @llvm.lifetime.start.p0i8(i64 4, i8* nonnull %4) #6
  %5 = call i32 (i8*, ...) @__isoc99_scanf(i8* getelementptr inbounds ([4 x i8], [4 x i8]* @.str, i64 0, i64 0), i32* nonnull %2)
  %6 = getelementptr inbounds [81 x i8], [81 x i8]* %1, i64 0, i64 1
  %7 = load i32, i32* %2, align 4, !tbaa !5
  %8 = icmp sgt i32 %7, 0
  br i1 %8, label %9, label %45

9:                                                ; preds = %0, %39
  %10 = phi i32 [ %42, %39 ], [ 0, %0 ]
  %11 = call i32 (i8*, ...) bitcast (i32 (...)* @gets to i32 (i8*, ...)*)(i8* nonnull %3) #6
  %12 = load i8, i8* %3, align 16, !tbaa !9
  %13 = icmp eq i8 %12, 95
  %14 = and i8 %12, -33
  %15 = add i8 %14, -65
  %16 = icmp ult i8 %15, 26
  %17 = or i1 %16, %13
  br i1 %17, label %18, label %39

18:                                               ; preds = %9, %31
  %19 = phi i8* [ %33, %31 ], [ %6, %9 ]
  %20 = phi i32 [ %32, %31 ], [ 1, %9 ]
  %21 = load i8, i8* %19, align 1, !tbaa !9
  switch i8 %21, label %22 [
    i8 0, label %34
    i8 95, label %29
  ]

22:                                               ; preds = %18
  %23 = and i8 %21, -33
  %24 = add i8 %23, -65
  %25 = icmp ult i8 %24, 26
  %26 = add i8 %21, -48
  %27 = icmp ult i8 %26, 10
  %28 = select i1 %25, i1 true, i1 %27
  br i1 %28, label %29, label %31

29:                                               ; preds = %22, %18
  %30 = add nsw i32 %20, 1
  br label %31

31:                                               ; preds = %22, %29
  %32 = phi i32 [ %30, %29 ], [ %20, %22 ]
  %33 = getelementptr inbounds i8, i8* %19, i64 1
  br label %18

34:                                               ; preds = %18
  %35 = sext i32 %20 to i64
  %36 = call i64 @strlen(i8* noundef nonnull %3) #7
  %37 = icmp eq i64 %36, %35
  %38 = select i1 %37, i8* getelementptr inbounds ([2 x i8], [2 x i8]* @str.4, i64 0, i64 0), i8* getelementptr inbounds ([2 x i8], [2 x i8]* @str.3, i64 0, i64 0)
  br label %39

39:                                               ; preds = %9, %34
  %40 = phi i8* [ %38, %34 ], [ getelementptr inbounds ([2 x i8], [2 x i8]* @str.3, i64 0, i64 0), %9 ]
  %41 = call i32 @puts(i8* nonnull dereferenceable(1) %40)
  %42 = add nuw nsw i32 %10, 1
  %43 = load i32, i32* %2, align 4, !tbaa !5
  %44 = icmp slt i32 %42, %43
  br i1 %44, label %9, label %45, !llvm.loop !10

45:                                               ; preds = %39, %0
  call void @llvm.lifetime.end.p0i8(i64 4, i8* nonnull %4) #6
  call void @llvm.lifetime.end.p0i8(i64 81, i8* nonnull %3) #6
  ret i32 0
}

; Function Attrs: argmemonly mustprogress nofree nosync nounwind willreturn
declare void @llvm.lifetime.start.p0i8(i64 immarg, i8* nocapture) #1

; Function Attrs: nofree nounwind
declare noundef i32 @__isoc99_scanf(i8* nocapture noundef readonly, ...) local_unnamed_addr #2

declare i32 @gets(...) local_unnamed_addr #3

; Function Attrs: argmemonly mustprogress nofree nounwind readonly willreturn
declare i64 @strlen(i8* nocapture) local_unnamed_addr #4

; Function Attrs: argmemonly mustprogress nofree nosync nounwind willreturn
declare void @llvm.lifetime.end.p0i8(i64 immarg, i8* nocapture) #1

; Function Attrs: nofree nounwind
declare noundef i32 @puts(i8* nocapture noundef readonly) local_unnamed_addr #5


!llvm.module.flags = !{!0, !1, !2, !3}
!llvm.ident = !{!4}

!0 = !{i32 1, !"wchar_size", i32 4}
!1 = !{i32 7, !"PIC Level", i32 2}
!2 = !{i32 7, !"PIE Level", i32 2}
!3 = !{i32 7, !"uwtable", i32 1}
!4 = !{!"clang version 13.0.0"}
!5 = !{!6, !6, i64 0}
!6 = !{!"int", !7, i64 0}
!7 = !{!"omnipotent char", !8, i64 0}
!8 = !{!"Simple C/C++ TBAA"}
!9 = !{!7, !7, i64 0}
!10 = distinct !{!10, !11}
!11 = !{!"llvm.loop.mustprogress"}
